target datalayout = "e-m:e-p270:32:32-p271:32:32-p272:64:64-i64:64-i128:128-f80:128-n8:16:32:64-S128"
target triple = "x86_64-pc-linux-gnu"

%struct.AVCodecContext = type { ptr, i32, i32, ptr, i32, i32, ptr, ptr, ptr, i64, i32, i32, ptr, i32, %struct.AVRational, %struct.AVRational, %struct.AVRational, i32, i32, i32, i32, i32, %struct.AVRational, i32, i32, i32, i32, i32, i32, i32, i32, i32, i32, i32, ptr, ptr, i32, float, float, float, float, float, float, float, float, float, i32, i32, i32, i32, i32, i32, i32, i32, i32, i32, i32, i32, ptr, ptr, ptr, i32, i32, i32, i32, i32, i32, i32, i32, i32, i32, %struct.AVChannelLayout, i32, i32, i32, i32, i32, i32, i32, i32, ptr, i32, i32, i32, float, float, i32, i32, i32, i32, i32, ptr, i64, i64, float, float, i32, i32, ptr, ptr, i32, i32, i32, i32, i32, ptr, ptr, ptr, ptr, i32, i32, [8 x i64], i32, i32, i32, i32, i32, i32, i32, ptr, ptr, i32, i32, i32, i32, i32, i32, i32, i32, i32, i32, ptr, ptr, i32, i32, ptr, ptr, ptr, ptr, i32, i32, i64, i32, i32, i64, ptr, i64, ptr, i32, ptr, i32 }
%struct.AVRational = type { i32, i32 }
%struct.AVChannelLayout = type { i32, i32, %union.anon.0, ptr }
%union.anon.0 = type { i64 }
%struct.ASVEncContext = type { %struct.ASVCommonContext, %struct.PutBitContext, %struct.PixblockDSPContext, %struct.FDCTDSPContext, [8 x i8], [6 x [64 x i16]], [64 x i32] }
%struct.ASVCommonContext = type { ptr, %struct.BswapDSPContext, i32, i32, i32, i32 }
%struct.BswapDSPContext = type { ptr, ptr }
%struct.PutBitContext = type { i32, i32, ptr, ptr, ptr }
%struct.PixblockDSPContext = type { ptr, ptr, ptr, ptr }
%struct.FDCTDSPContext = type { ptr, ptr }

@.str.5 = private unnamed_addr constant [5 x i8] c"ASUS\00", align 1
@ff_mpeg1_default_intra_matrix = external constant [0 x i16], align 2
@ff_aanscales = external constant [64 x i16], align 16

; Function Attrs: cold nounwind optsize uwtable
define internal i32 @encode_init(ptr noundef %0) #0 {
  %2 = alloca i32, align 4
  %3 = alloca ptr, align 8
  %4 = alloca ptr, align 8
  %5 = alloca i32, align 4
  %6 = alloca i32, align 4
  %7 = alloca i32, align 4
  %8 = alloca i32, align 4
  %9 = alloca i32, align 4
  %10 = alloca i32, align 4
  store ptr %0, ptr %3, align 8, !tbaa !4
  call void @llvm.lifetime.start.p0(i64 8, ptr %4) #8
  %11 = load ptr, ptr %3, align 8, !tbaa !4
  %12 = getelementptr inbounds nuw %struct.AVCodecContext, ptr %11, i32 0, i32 6
  %13 = load ptr, ptr %12, align 8, !tbaa !9
  store ptr %13, ptr %4, align 8, !tbaa !29
  call void @llvm.lifetime.start.p0(i64 4, ptr %5) #8
  call void @llvm.lifetime.start.p0(i64 4, ptr %6) #8
  %14 = load ptr, ptr %3, align 8, !tbaa !4
  %15 = getelementptr inbounds nuw %struct.AVCodecContext, ptr %14, i32 0, i32 4
  %16 = load i32, ptr %15, align 8, !tbaa !31
  %17 = icmp eq i32 %16, 31
  %18 = select i1 %17, i32 1, i32 2
  store i32 %18, ptr %6, align 4, !tbaa !32
  call void @llvm.lifetime.start.p0(i64 4, ptr %7) #8
  %19 = load ptr, ptr %3, align 8, !tbaa !4
  call void @ff_asv_common_init(ptr noundef %19)
  %20 = load ptr, ptr %4, align 8, !tbaa !29
  %21 = getelementptr inbounds nuw %struct.ASVEncContext, ptr %20, i32 0, i32 3
  %22 = load ptr, ptr %3, align 8, !tbaa !4
  call void @ff_fdctdsp_init(ptr noundef %21, ptr noundef %22)
  %23 = load ptr, ptr %4, align 8, !tbaa !29
  %24 = getelementptr inbounds nuw %struct.ASVEncContext, ptr %23, i32 0, i32 2
  %25 = load ptr, ptr %3, align 8, !tbaa !4
  call void @ff_pixblockdsp_init(ptr noundef %24, ptr noundef %25)
  %26 = load ptr, ptr %3, align 8, !tbaa !4
  %27 = getelementptr inbounds nuw %struct.AVCodecContext, ptr %26, i32 0, i32 82
  %28 = load i32, ptr %27, align 4, !tbaa !33
  %29 = icmp sle i32 %28, 0
  br i1 %29, label %30, label %33

30:                                               ; preds = %1
  %31 = load ptr, ptr %3, align 8, !tbaa !4
  %32 = getelementptr inbounds nuw %struct.AVCodecContext, ptr %31, i32 0, i32 82
  store i32 512, ptr %32, align 4, !tbaa !33
  br label %33

33:                                               ; preds = %30, %1
  %34 = load i32, ptr %6, align 4, !tbaa !32
  %35 = mul nsw i32 32, %34
  %36 = mul nsw i32 %35, 128
  %37 = load ptr, ptr %3, align 8, !tbaa !4
  %38 = getelementptr inbounds nuw %struct.AVCodecContext, ptr %37, i32 0, i32 82
  %39 = load i32, ptr %38, align 4, !tbaa !33
  %40 = sdiv i32 %39, 2
  %41 = add nsw i32 %36, %40
  %42 = load ptr, ptr %3, align 8, !tbaa !4
  %43 = getelementptr inbounds nuw %struct.AVCodecContext, ptr %42, i32 0, i32 82
  %44 = load i32, ptr %43, align 4, !tbaa !33
  %45 = sdiv i32 %41, %44
  store i32 %45, ptr %7, align 4, !tbaa !32
  %46 = call noalias ptr @av_mallocz(i64 noundef 8)
  %47 = load ptr, ptr %3, align 8, !tbaa !4
  %48 = getelementptr inbounds nuw %struct.AVCodecContext, ptr %47, i32 0, i32 12
  store ptr %46, ptr %48, align 8, !tbaa !34
  %49 = load ptr, ptr %3, align 8, !tbaa !4
  %50 = getelementptr inbounds nuw %struct.AVCodecContext, ptr %49, i32 0, i32 12
  %51 = load ptr, ptr %50, align 8, !tbaa !34
  %52 = icmp ne ptr %51, null
  br i1 %52, label %54, label %53

53:                                               ; preds = %33
  store i32 -12, ptr %2, align 4
  store i32 1, ptr %8, align 4
  br label %134

54:                                               ; preds = %33
  %55 = load ptr, ptr %3, align 8, !tbaa !4
  %56 = getelementptr inbounds nuw %struct.AVCodecContext, ptr %55, i32 0, i32 13
  store i32 8, ptr %56, align 8, !tbaa !35
  %57 = load i32, ptr %7, align 4, !tbaa !32
  %58 = load ptr, ptr %3, align 8, !tbaa !4
  %59 = getelementptr inbounds nuw %struct.AVCodecContext, ptr %58, i32 0, i32 12
  %60 = load ptr, ptr %59, align 8, !tbaa !34
  store i32 %57, ptr %60, align 4, !tbaa !36
  %61 = load i32, ptr @.str.5, align 1, !tbaa !36
  %62 = load ptr, ptr %3, align 8, !tbaa !4
  %63 = getelementptr inbounds nuw %struct.AVCodecContext, ptr %62, i32 0, i32 12
  %64 = load ptr, ptr %63, align 8, !tbaa !34
  %65 = getelementptr inbounds i32, ptr %64, i64 1
  store i32 %61, ptr %65, align 4, !tbaa !32
  store i32 0, ptr %5, align 4, !tbaa !32
  br label %66

66:                                               ; preds = %130, %54
  %67 = load i32, ptr %5, align 4, !tbaa !32
  %68 = icmp slt i32 %67, 64
  br i1 %68, label %69, label %133

69:                                               ; preds = %66
  %70 = load ptr, ptr %4, align 8, !tbaa !29
  %71 = getelementptr inbounds nuw %struct.ASVEncContext, ptr %70, i32 0, i32 3
  %72 = getelementptr inbounds nuw %struct.FDCTDSPContext, ptr %71, i32 0, i32 0
  %73 = load ptr, ptr %72, align 8, !tbaa !37
  %74 = icmp eq ptr %73, @ff_fdct_ifast
  br i1 %74, label %75, label %108

75:                                               ; preds = %69
  call void @llvm.lifetime.start.p0(i64 4, ptr %9) #8
  %76 = load i32, ptr %6, align 4, !tbaa !32
  %77 = sext i32 %76 to i64
  %78 = mul nsw i64 32, %77
  %79 = load i32, ptr %5, align 4, !tbaa !32
  %80 = sext i32 %79 to i64
  %81 = getelementptr inbounds [0 x i16], ptr @ff_mpeg1_default_intra_matrix, i64 0, i64 %80
  %82 = load i16, ptr %81, align 2, !tbaa !44
  %83 = zext i16 %82 to i64
  %84 = mul nsw i64 %78, %83
  %85 = load i32, ptr %5, align 4, !tbaa !32
  %86 = sext i32 %85 to i64
  %87 = getelementptr inbounds [64 x i16], ptr @ff_aanscales, i64 0, i64 %86
  %88 = load i16, ptr %87, align 2, !tbaa !44
  %89 = zext i16 %88 to i64
  %90 = mul nsw i64 %84, %89
  %91 = trunc i64 %90 to i32
  store i32 %91, ptr %9, align 4, !tbaa !32
  %92 = load i32, ptr %7, align 4, !tbaa !32
  %93 = sext i32 %92 to i64
  %94 = shl i64 %93, 30
  %95 = load i32, ptr %9, align 4, !tbaa !32
  %96 = sdiv i32 %95, 2
  %97 = sext i32 %96 to i64
  %98 = add nsw i64 %94, %97
  %99 = load i32, ptr %9, align 4, !tbaa !32
  %100 = sext i32 %99 to i64
  %101 = sdiv i64 %98, %100
  %102 = trunc i64 %101 to i32
  %103 = load ptr, ptr %4, align 8, !tbaa !29
  %104 = getelementptr inbounds nuw %struct.ASVEncContext, ptr %103, i32 0, i32 6
  %105 = load i32, ptr %5, align 4, !tbaa !32
  %106 = sext i32 %105 to i64
  %107 = getelementptr inbounds [64 x i32], ptr %104, i64 0, i64 %106
  store i32 %102, ptr %107, align 4, !tbaa !32
  call void @llvm.lifetime.end.p0(i64 4, ptr %9) #8
  br label %129

108:                                              ; preds = %69
  call void @llvm.lifetime.start.p0(i64 4, ptr %10) #8
  %109 = load i32, ptr %6, align 4, !tbaa !32
  %110 = mul nsw i32 32, %109
  %111 = load i32, ptr %5, align 4, !tbaa !32
  %112 = sext i32 %111 to i64
  %113 = getelementptr inbounds [0 x i16], ptr @ff_mpeg1_default_intra_matrix, i64 0, i64 %112
  %114 = load i16, ptr %113, align 2, !tbaa !44
  %115 = zext i16 %114 to i32
  %116 = mul nsw i32 %110, %115
  store i32 %116, ptr %10, align 4, !tbaa !32
  %117 = load i32, ptr %7, align 4, !tbaa !32
  %118 = shl i32 %117, 16
  %119 = load i32, ptr %10, align 4, !tbaa !32
  %120 = sdiv i32 %119, 2
  %121 = add nsw i32 %118, %120
  %122 = load i32, ptr %10, align 4, !tbaa !32
  %123 = sdiv i32 %121, %122
  %124 = load ptr, ptr %4, align 8, !tbaa !29
  %125 = getelementptr inbounds nuw %struct.ASVEncContext, ptr %124, i32 0, i32 6
  %126 = load i32, ptr %5, align 4, !tbaa !32
  %127 = sext i32 %126 to i64
  %128 = getelementptr inbounds [64 x i32], ptr %125, i64 0, i64 %127
  store i32 %123, ptr %128, align 4, !tbaa !32
  call void @llvm.lifetime.end.p0(i64 4, ptr %10) #8
  br label %129

129:                                              ; preds = %108, %75
  br label %130

130:                                              ; preds = %129
  %131 = load i32, ptr %5, align 4, !tbaa !32
  %132 = add nsw i32 %131, 1
  store i32 %132, ptr %5, align 4, !tbaa !32
  br label %66, !llvm.loop !46

133:                                              ; preds = %66
  store i32 0, ptr %2, align 4
  store i32 1, ptr %8, align 4
  br label %134

134:                                              ; preds = %133, %53
  call void @llvm.lifetime.end.p0(i64 4, ptr %7) #8
  call void @llvm.lifetime.end.p0(i64 4, ptr %6) #8
  call void @llvm.lifetime.end.p0(i64 4, ptr %5) #8
  call void @llvm.lifetime.end.p0(i64 8, ptr %4) #8
  %135 = load i32, ptr %2, align 4
  ret i32 %135
}