; Function Attrs: cold nounwind optsize uwtable
define internal range(i32 -12, 1) i32 @encode_init(ptr noundef %0) #0 {
  %2 = getelementptr inbounds nuw i8, ptr %0, i64 32
  %3 = load ptr, ptr %2, align 8, !tbaa !4
  %4 = getelementptr inbounds nuw i8, ptr %0, i64 24
  %5 = load i32, ptr %4, align 8, !tbaa !27
  %.not37.not = icmp eq i32 %5, 31
  %6 = select i1 %.not37.not, i32 4096, i32 8192
  tail call void @ff_asv_common_init(ptr noundef %0) #7
  %7 = getelementptr inbounds nuw i8, ptr %3, i64 104
  tail call void @ff_fdctdsp_init(ptr noundef nonnull %7, ptr noundef %0) #7
  %8 = getelementptr inbounds nuw i8, ptr %3, i64 72
  tail call void @ff_pixblockdsp_init(ptr noundef nonnull %8, ptr noundef %0) #7
  %9 = getelementptr inbounds nuw i8, ptr %0, i64 420
  %10 = load i32, ptr %9, align 4, !tbaa !28
  %11 = icmp slt i32 %10, 1
  br i1 %11, label %12, label %13

12:                                               ; preds = %1
  store i32 512, ptr %9, align 4, !tbaa !28
  br label %13

13:                                               ; preds = %12, %1
  %14 = phi i32 [ 512, %12 ], [ %10, %1 ]
  %15 = tail call noalias ptr @av_mallocz(i64 noundef 8) #7
  %16 = getelementptr inbounds nuw i8, ptr %0, i64 72
  store ptr %15, ptr %16, align 8, !tbaa !29
  %.not = icmp eq ptr %15, null
  br i1 %.not, label %.loopexit, label %17

17:                                               ; preds = %13
  %18 = lshr i32 %14, 1
  %19 = add nuw nsw i32 %18, %6
  %20 = udiv i32 %19, %14
  %21 = getelementptr inbounds nuw i8, ptr %0, i64 80
  store i32 8, ptr %21, align 8, !tbaa !30
  store i32 %20, ptr %15, align 4, !tbaa !31
  %22 = getelementptr inbounds nuw i8, ptr %15, i64 4
  store i32 1398100801, ptr %22, align 4, !tbaa !32
  %23 = load ptr, ptr %7, align 8, !tbaa !33
  %24 = icmp eq ptr %23, @ff_fdct_ifast
  %25 = select i1 %.not37.not, i32 5, i32 6
  %26 = shl i32 %20, 16
  %27 = getelementptr inbounds nuw i8, ptr %3, i64 896
  %28 = zext nneg i32 %20 to i64
  %29 = shl nuw nsw i64 %28, 30
  br label %30

30:                                               ; preds = %17, %50
  %indvars.iv = phi i64 [ 0, %17 ], [ %indvars.iv.next, %50 ]
  %31 = getelementptr inbounds nuw [0 x i16], ptr @ff_mpeg1_default_intra_matrix, i64 0, i64 %indvars.iv
  %32 = load i16, ptr %31, align 2, !tbaa !41
  %33 = zext i16 %32 to i32
  %34 = shl nuw nsw i32 %33, %25
  br i1 %24, label %35, label %46

35:                                               ; preds = %30
  %36 = getelementptr inbounds nuw [64 x i16], ptr @ff_aanscales, i64 0, i64 %indvars.iv
  %37 = load i16, ptr %36, align 2, !tbaa !41
  %38 = zext i16 %37 to i32
  %39 = mul i32 %34, %38
  %40 = ashr exact i32 %39, 1
  %41 = sext i32 %40 to i64
  %42 = add nsw i64 %29, %41
  %43 = sext i32 %39 to i64
  %44 = sdiv i64 %42, %43
  %45 = trunc i64 %44 to i32
  br label %50

46:                                               ; preds = %30
  %47 = lshr exact i32 %34, 1
  %48 = add nsw i32 %47, %26
  %49 = sdiv i32 %48, %34
  br label %50

50:                                               ; preds = %35, %46
  %.sink = phi i32 [ %45, %35 ], [ %49, %46 ]
  %51 = getelementptr inbounds nuw [64 x i32], ptr %27, i64 0, i64 %indvars.iv
  store i32 %.sink, ptr %51, align 4, !tbaa !32
  %indvars.iv.next = add nuw nsw i64 %indvars.iv, 1
  %exitcond.not = icmp eq i64 %indvars.iv.next, 64
  br i1 %exitcond.not, label %.loopexit, label %30, !llvm.loop !43

.loopexit:                                        ; preds = %50, %13
  %.0 = phi i32 [ -12, %13 ], [ 0, %50 ]
  ret i32 %.0
}